; Function Attrs: inlinehint nofree nounwind sspstrong memory(argmem: read) uwtable
define internal fastcc noundef i64 @rb_memsearch_wchar(ptr noundef nonnull readonly captures(none) %0, i64 noundef range(i64 2, -9223372036854775808) %1, ptr noundef nonnull %2, i64 noundef %3) unnamed_addr #5 {
  %5 = load i8, ptr %0, align 1, !tbaa !7
  %6 = sub i64 %3, %1
  %7 = icmp sgt i64 %6, -1
  br i1 %7, label %.lr.ph.i, label %rb_memsearch_with_char_size.exit

.lr.ph.i:                                         ; preds = %4
  %8 = getelementptr i8, ptr %0, i64 1
  %9 = add nsw i64 %1, -1
  br label %10

10:                                               ; preds = %20, %.lr.ph.i
  %.021.i = phi ptr [ %2, %.lr.ph.i ], [ %22, %20 ]
  %.01820.i = phi i64 [ %6, %.lr.ph.i ], [ %21, %20 ]
  %11 = load i8, ptr %.021.i, align 1, !tbaa !7
  %12 = icmp eq i8 %5, %11
  br i1 %12, label %13, label %20

13:                                               ; preds = %10
  %14 = getelementptr i8, ptr %.021.i, i64 1
  %bcmp.i = tail call i32 @bcmp(ptr readonly %8, ptr %14, i64 %9)
  %15 = icmp eq i32 %bcmp.i, 0
  br i1 %15, label %16, label %20

16:                                               ; preds = %13
  %17 = ptrtoint ptr %.021.i to i64
  %18 = ptrtoint ptr %2 to i64
  %19 = sub i64 %17, %18
  br label %rb_memsearch_with_char_size.exit

20:                                               ; preds = %13, %10
  %21 = add nsw i64 %.01820.i, -2
  %22 = getelementptr i8, ptr %.021.i, i64 2
  %23 = icmp sgt i64 %.01820.i, 1
  br i1 %23, label %10, label %rb_memsearch_with_char_size.exit, !llvm.loop !26

rb_memsearch_with_char_size.exit:                 ; preds = %20, %4, %16
  %.017.i = phi i64 [ %19, %16 ], [ -1, %4 ], [ -1, %20 ]
  ret i64 %.017.i
}